; Function Attrs: mustprogress nofree norecurse nosync nounwind ssp willreturn memory(argmem: readwrite) uwtable
define noundef nonnull align 8 dereferenceable(88) ptr @_ZN6open3d13visualization16PointCloudPicker5ClearEv(ptr noundef nonnull returned align 8 captures(ret: address, provenance) dereferenceable(88) %0) unnamed_addr #1 align 2 personality ptr @__gxx_personality_v0 {
  %2 = getelementptr inbounds nuw i8, ptr %0, i64 64
  %3 = load ptr, ptr %2, align 8, !tbaa !7
  %4 = getelementptr inbounds nuw i8, ptr %0, i64 72
  %5 = load ptr, ptr %4, align 8, !tbaa !29
  %.not.i.i = icmp eq ptr %5, %3
  br i1 %.not.i.i, label %_ZNSt6vectorImSaImEE5clearEv.exit, label %_ZSt8_DestroyIPmmEvT_S1_RSaIT0_E.exit.i.i

_ZSt8_DestroyIPmmEvT_S1_RSaIT0_E.exit.i.i:        ; preds = %1
  store ptr %3, ptr %4, align 8, !tbaa !29
  br label %_ZNSt6vectorImSaImEE5clearEv.exit

_ZNSt6vectorImSaImEE5clearEv.exit:                ; preds = %1, %_ZSt8_DestroyIPmmEvT_S1_RSaIT0_E.exit.i.i
  ret ptr %0
}